; Function Attrs: null_pointer_is_valid sspstrong uwtable
define internal void @rs15(ptr noundef %0, ptr noundef %1, ptr noundef %2) #0 {
  %4 = load i32, ptr @hf_ipmi_se_15_tstamp, align 4
  tail call void @ipmi_add_timestamp(ptr noundef %1, ptr noundef %2, i32 noundef %4, ptr noundef %0, i32 noundef 0)
  %5 = load i32, ptr @hf_ipmi_se_15_lastrec, align 4
  %6 = tail call ptr @proto_tree_add_item(ptr noundef %2, i32 noundef %5, ptr noundef %0, i32 noundef 4, i32 noundef 2, i32 noundef -2147483648)
  %7 = load i32, ptr @hf_ipmi_se_15_proc_sw, align 4
  %8 = tail call ptr @proto_tree_add_item(ptr noundef %2, i32 noundef %7, ptr noundef %0, i32 noundef 6, i32 noundef 2, i32 noundef -2147483648)
  %9 = load i32, ptr @hf_ipmi_se_15_proc_bmc, align 4
  %10 = tail call ptr @proto_tree_add_item(ptr noundef %2, i32 noundef %9, ptr noundef %0, i32 noundef 8, i32 noundef 2, i32 noundef -2147483648)
  ret void
}